target datalayout = "e-m:e-p270:32:32-p271:32:32-p272:64:64-i64:64-i128:128-f80:128-n8:16:32:64-S128"
target triple = "x86_64-pc-linux-gnu"

%struct._YR_COMPILER = type { i32, i32, i32, i32, i32, [1 x %struct.__jmp_buf_tag], ptr, ptr, ptr, ptr, ptr, ptr, ptr, ptr, ptr, ptr, ptr, ptr, ptr, ptr, i32, i32, [4 x ptr], [4 x ptr], i32, i32, i32, [16 x ptr], i32, [16 x ptr], i32, [256 x i8], [1024 x i8], ptr, i16, [1024 x i8], ptr, %struct.rq, %struct.cs, ptr, i32 }
%struct.__jmp_buf_tag = type { [8 x i64], i32, %struct.__sigset_t }
%struct.__sigset_t = type { [16 x i64] }
%struct.rq = type { ptr, ptr }
%struct.cs = type { ptr, ptr }

; Function Attrs: nounwind uwtable
define i32 @_yr_compiler_push_file(ptr noundef %0, ptr noundef %1) #0 {
  %3 = alloca i32, align 4
  %4 = alloca ptr, align 8
  %5 = alloca ptr, align 8
  store ptr %0, ptr %4, align 8
  store ptr %1, ptr %5, align 8
  %6 = load ptr, ptr %4, align 8
  %7 = getelementptr inbounds %struct._YR_COMPILER, ptr %6, i32 0, i32 30
  %8 = load i32, ptr %7, align 8
  %9 = icmp slt i32 %8, 16
  br i1 %9, label %10, label %23

10:                                               ; preds = %2
  %11 = load ptr, ptr %5, align 8
  %12 = load ptr, ptr %4, align 8
  %13 = getelementptr inbounds %struct._YR_COMPILER, ptr %12, i32 0, i32 29
  %14 = load ptr, ptr %4, align 8
  %15 = getelementptr inbounds %struct._YR_COMPILER, ptr %14, i32 0, i32 30
  %16 = load i32, ptr %15, align 8
  %17 = sext i32 %16 to i64
  %18 = getelementptr inbounds [16 x ptr], ptr %13, i64 0, i64 %17
  store ptr %11, ptr %18, align 8
  %19 = load ptr, ptr %4, align 8
  %20 = getelementptr inbounds %struct._YR_COMPILER, ptr %19, i32 0, i32 30
  %21 = load i32, ptr %20, align 8
  %22 = add nsw i32 %21, 1
  store i32 %22, ptr %20, align 8
  store i32 0, ptr %3, align 4
  br label %26

23:                                               ; preds = %2
  %24 = load ptr, ptr %4, align 8
  %25 = getelementptr inbounds %struct._YR_COMPILER, ptr %24, i32 0, i32 4
  store i32 23, ptr %25, align 8
  store i32 23, ptr %3, align 4
  br label %26

26:                                               ; preds = %23, %10
  %27 = load i32, ptr %3, align 4
  ret i32 %27
}