; Function Attrs: mustprogress nofree norecurse nosync nounwind willreturn memory(argmem: readwrite) uwtable
define noundef i32 @_yr_compiler_push_file(ptr nocapture noundef %0, ptr noundef %1) local_unnamed_addr #0 {
  %3 = getelementptr inbounds i8, ptr %0, i64 688
  %4 = load i32, ptr %3, align 8
  %5 = icmp slt i32 %4, 16
  br i1 %5, label %6, label %12

6:                                                ; preds = %2
  %7 = getelementptr inbounds i8, ptr %0, i64 560
  %8 = sext i32 %4 to i64
  %9 = getelementptr inbounds [16 x ptr], ptr %7, i64 0, i64 %8
  store ptr %1, ptr %9, align 8
  %10 = load i32, ptr %3, align 8
  %11 = add nsw i32 %10, 1
  store i32 %11, ptr %3, align 8
  br label %14

12:                                               ; preds = %2
  %13 = getelementptr inbounds i8, ptr %0, i64 16
  store i32 23, ptr %13, align 8
  br label %14

14:                                               ; preds = %12, %6
  %.0 = phi i32 [ 0, %6 ], [ 23, %12 ]
  ret i32 %.0
}